(dp1
S'appdata'
p2
(dp3
S'type'
p4
S'string'
p5
sS'sortable'
p6
I6
sS'sql'
p7
S'VARCHAR(128) NOT NULL'
p8
ssS'exten'
p9
(dp10
g4
g5
sg6
I3
sg7
S'VARCHAR(20) NOT NULL'
p11
ssS'app'
p12
(dp13
g4
g5
sg6
I5
sg7
S'VARCHAR(20) NOT NULL'
p14
ssS'priority'
p15
(dp16
g4
S'integer'
p17
sg6
I4
sg7
S'INT NOT NULL'
p18
ssS'context'
p19
(dp20
g4
g5
sg6
I2
sg7
S'VARCHAR(20) NOT NULL'
p21
ssS'id'
p22
(dp23
g4
g22
sg6
I1
sg7
S'INT AUTO_INCREMENT NOT NULL'
p24
ss.